target datalayout = "e-m:e-p270:32:32-p271:32:32-p272:64:64-i64:64-i128:128-f80:128-n8:16:32:64-S128"
target triple = "x86_64-pc-linux-gnu"

%struct.reassembly_table = type { ptr, ptr, ptr, ptr, ptr }

@.str.1412 = private unnamed_addr constant [13 x i8] c"IEEE 1905.1a\00", align 1
@.str.1413 = private unnamed_addr constant [9 x i8] c"ieee1905\00", align 1
@proto_ieee1905 = internal global i32 0, align 4
@g_ieee1905_reassembly_table = internal global %struct.reassembly_table zeroinitializer, align 8
@ieee1905_handle = internal global ptr null, align 8

; Function Attrs: null_pointer_is_valid sspstrong uwtable
define hidden void @proto_register_ieee1905() #0 {
  %1 = alloca ptr, align 8
  call void @llvm.lifetime.start.p0(i64 8, ptr %1) #12
  store ptr null, ptr %1, align 8
  %2 = call i32 @proto_register_protocol(ptr noundef @.str.1412, ptr noundef @.str.1413, ptr noundef @.str.1413)
  store i32 %2, ptr @proto_ieee1905, align 4
  %3 = load i32, ptr @proto_ieee1905, align 4
  call void @proto_register_field_array(i32 noundef %3, ptr noundef @proto_register_ieee1905.hf, i32 noundef 822)
  call void @proto_register_subtree_array(ptr noundef @proto_register_ieee1905.ett, i32 noundef 219)
  %4 = load i32, ptr @proto_ieee1905, align 4
  %5 = call ptr @expert_register_protocol(i32 noundef %4)
  store ptr %5, ptr %1, align 8
  %6 = load ptr, ptr %1, align 8
  call void @expert_register_field_array(ptr noundef %6, ptr noundef @proto_register_ieee1905.ei, i32 noundef 2)
  call void @reassembly_table_register(ptr noundef @g_ieee1905_reassembly_table, ptr noundef @ieee1905_reassembly_table_functions)
  %7 = load i32, ptr @proto_ieee1905, align 4
  %8 = call ptr @register_dissector(ptr noundef @.str.1413, ptr noundef @dissect_ieee1905, i32 noundef %7)
  store ptr %8, ptr @ieee1905_handle, align 8
  call void @llvm.lifetime.end.p0(i64 8, ptr %1) #12
  ret void
}