; Function Attrs: null_pointer_is_valid sspstrong uwtable
define hidden void @proto_register_ieee1905() local_unnamed_addr #0 {
  %1 = tail call i32 @proto_register_protocol(ptr noundef nonnull @.str.1412, ptr noundef nonnull @.str.1413, ptr noundef nonnull @.str.1413)
  store i32 %1, ptr @proto_ieee1905, align 4
  tail call void @proto_register_field_array(i32 noundef %1, ptr noundef nonnull @proto_register_ieee1905.hf, i32 noundef 822)
  tail call void @proto_register_subtree_array(ptr noundef nonnull @proto_register_ieee1905.ett, i32 noundef 219)
  %2 = load i32, ptr @proto_ieee1905, align 4
  %3 = tail call ptr @expert_register_protocol(i32 noundef %2)
  tail call void @expert_register_field_array(ptr noundef %3, ptr noundef nonnull @proto_register_ieee1905.ei, i32 noundef 2)
  tail call void @reassembly_table_register(ptr noundef nonnull @g_ieee1905_reassembly_table, ptr noundef nonnull @ieee1905_reassembly_table_functions)
  %4 = load i32, ptr @proto_ieee1905, align 4
  %5 = tail call ptr @register_dissector(ptr noundef nonnull @.str.1413, ptr noundef nonnull @dissect_ieee1905, i32 noundef %4)
  store ptr %5, ptr @ieee1905_handle, align 8
  ret void
}